; Function Attrs: nofree norecurse nosync nounwind memory(argmem: read) uwtable
define double @max_abs(i32 noundef %0, ptr noundef readonly captures(none) %1) local_unnamed_addr #2 {
  %3 = icmp sgt i32 %0, 0
  br i1 %3, label %.lr.ph.preheader, label %._crit_edge

.lr.ph.preheader:                                 ; preds = %2
  %wide.trip.count = zext nneg i32 %0 to i64
  br label %.lr.ph

.lr.ph:                                           ; preds = %.lr.ph.preheader, %.lr.ph
  %indvars.iv = phi i64 [ 0, %.lr.ph.preheader ], [ %indvars.iv.next, %.lr.ph ]
  %.067 = phi double [ -1.000000e+50, %.lr.ph.preheader ], [ %7, %.lr.ph ]
  %4 = getelementptr inbounds nuw double, ptr %1, i64 %indvars.iv
  %5 = load double, ptr %4, align 8, !tbaa !10
  %6 = tail call double @llvm.fabs.f64(double %5)
  %7 = tail call double @llvm.maxnum.f64(double %.067, double %6)
  %indvars.iv.next = add nuw nsw i64 %indvars.iv, 1
  %exitcond.not = icmp eq i64 %indvars.iv.next, %wide.trip.count
  br i1 %exitcond.not, label %._crit_edge, label %.lr.ph, !llvm.loop !66

._crit_edge:                                      ; preds = %.lr.ph, %2
  %.06.lcssa = phi double [ -1.000000e+50, %2 ], [ %7, %.lr.ph ]
  ret double %.06.lcssa
}